; ModuleID = '50/746.c'
source_filename = "50/746.c"
target datalayout = "e-m:e-p270:32:32-p271:32:32-p272:64:64-i64:64-f80:128-n8:16:32:64-S128"
target triple = "x86_64-pc-linux-gnu"

@.str = private unnamed_addr constant [3 x i8] c"%d\00", align 1
@.str.1 = private unnamed_addr constant [3 x i8] c"1\0A\00", align 1
@.str.2 = private unnamed_addr constant [3 x i8] c"2\0A\00", align 1
@.str.3 = private unnamed_addr constant [3 x i8] c"3\0A\00", align 1
@.str.4 = private unnamed_addr constant [3 x i8] c"4\0A\00", align 1
@.str.5 = private unnamed_addr constant [3 x i8] c"5\0A\00", align 1
@.str.6 = private unnamed_addr constant [3 x i8] c"6\0A\00", align 1
@.str.7 = private unnamed_addr constant [3 x i8] c"7\0A\00", align 1
@.str.8 = private unnamed_addr constant [3 x i8] c"8\0A\00", align 1
@.str.9 = private unnamed_addr constant [3 x i8] c"9\0A\00", align 1
@.str.10 = private unnamed_addr constant [4 x i8] c"10\0A\00", align 1
@.str.11 = private unnamed_addr constant [4 x i8] c"11\0A\00", align 1
@.str.12 = private unnamed_addr constant [4 x i8] c"12\0A\00", align 1

; Function Attrs: noinline nounwind uwtable
define dso_local i32 @main() #0 {
  %1 = alloca i32, align 4
  %2 = alloca i32, align 4
  %3 = alloca i32, align 4
  %4 = alloca [365 x i32], align 16
  store i32 0, i32* %1, align 4
  %5 = call i32 (i8*, ...) @__isoc99_scanf(i8* getelementptr inbounds ([3 x i8], [3 x i8]* @.str, i64 0, i64 0), i32* %3)
  store i32 0, i32* %2, align 4
  br label %6

6:                                                ; preds = %15, %0
  %7 = load i32, i32* %2, align 4
  %8 = icmp slt i32 %7, 365
  br i1 %8, label %9, label %20

9:                                                ; preds = %6
  %10 = load i32, i32* %3, align 4
  %11 = srem i32 %10, 7
  %12 = load i32, i32* %2, align 4
  %13 = sext i32 %12 to i64
  %14 = getelementptr inbounds [365 x i32], [365 x i32]* %4, i64 0, i64 %13
  store i32 %11, i32* %14, align 4
  br label %15

15:                                               ; preds = %9
  %16 = load i32, i32* %2, align 4
  %17 = add nsw i32 %16, 1
  store i32 %17, i32* %2, align 4
  %18 = load i32, i32* %3, align 4
  %19 = add nsw i32 %18, 1
  store i32 %19, i32* %3, align 4
  br label %6

20:                                               ; preds = %6
  %21 = getelementptr inbounds [365 x i32], [365 x i32]* %4, i64 0, i64 12
  %22 = load i32, i32* %21, align 16
  %23 = icmp eq i32 %22, 5
  br i1 %23, label %24, label %26

24:                                               ; preds = %20
  %25 = call i32 (i8*, ...) @printf(i8* getelementptr inbounds ([3 x i8], [3 x i8]* @.str.1, i64 0, i64 0))
  br label %26

26:                                               ; preds = %24, %20
  %27 = getelementptr inbounds [365 x i32], [365 x i32]* %4, i64 0, i64 43
  %28 = load i32, i32* %27, align 4
  %29 = icmp eq i32 %28, 5
  br i1 %29, label %30, label %32

30:                                               ; preds = %26
  %31 = call i32 (i8*, ...) @printf(i8* getelementptr inbounds ([3 x i8], [3 x i8]* @.str.2, i64 0, i64 0))
  br label %32

32:                                               ; preds = %30, %26
  %33 = getelementptr inbounds [365 x i32], [365 x i32]* %4, i64 0, i64 71
  %34 = load i32, i32* %33, align 4
  %35 = icmp eq i32 %34, 5
  br i1 %35, label %36, label %38

36:                                               ; preds = %32
  %37 = call i32 (i8*, ...) @printf(i8* getelementptr inbounds ([3 x i8], [3 x i8]* @.str.3, i64 0, i64 0))
  br label %38

38:                                               ; preds = %36, %32
  %39 = getelementptr inbounds [365 x i32], [365 x i32]* %4, i64 0, i64 102
  %40 = load i32, i32* %39, align 8
  %41 = icmp eq i32 %40, 5
  br i1 %41, label %42, label %44

42:                                               ; preds = %38
  %43 = call i32 (i8*, ...) @printf(i8* getelementptr inbounds ([3 x i8], [3 x i8]* @.str.4, i64 0, i64 0))
  br label %44

44:                                               ; preds = %42, %38
  %45 = getelementptr inbounds [365 x i32], [365 x i32]* %4, i64 0, i64 132
  %46 = load i32, i32* %45, align 16
  %47 = icmp eq i32 %46, 5
  br i1 %47, label %48, label %50

48:                                               ; preds = %44
  %49 = call i32 (i8*, ...) @printf(i8* getelementptr inbounds ([3 x i8], [3 x i8]* @.str.5, i64 0, i64 0))
  br label %50

50:                                               ; preds = %48, %44
  %51 = getelementptr inbounds [365 x i32], [365 x i32]* %4, i64 0, i64 163
  %52 = load i32, i32* %51, align 4
  %53 = icmp eq i32 %52, 5
  br i1 %53, label %54, label %56

54:                                               ; preds = %50
  %55 = call i32 (i8*, ...) @printf(i8* getelementptr inbounds ([3 x i8], [3 x i8]* @.str.6, i64 0, i64 0))
  br label %56

56:                                               ; preds = %54, %50
  %57 = getelementptr inbounds [365 x i32], [365 x i32]* %4, i64 0, i64 193
  %58 = load i32, i32* %57, align 4
  %59 = icmp eq i32 %58, 5
  br i1 %59, label %60, label %62

60:                                               ; preds = %56
  %61 = call i32 (i8*, ...) @printf(i8* getelementptr inbounds ([3 x i8], [3 x i8]* @.str.7, i64 0, i64 0))
  br label %62

62:                                               ; preds = %60, %56
  %63 = getelementptr inbounds [365 x i32], [365 x i32]* %4, i64 0, i64 224
  %64 = load i32, i32* %63, align 16
  %65 = icmp eq i32 %64, 5
  br i1 %65, label %66, label %68

66:                                               ; preds = %62
  %67 = call i32 (i8*, ...) @printf(i8* getelementptr inbounds ([3 x i8], [3 x i8]* @.str.8, i64 0, i64 0))
  br label %68

68:                                               ; preds = %66, %62
  %69 = getelementptr inbounds [365 x i32], [365 x i32]* %4, i64 0, i64 255
  %70 = load i32, i32* %69, align 4
  %71 = icmp eq i32 %70, 5
  br i1 %71, label %72, label %74

72:                                               ; preds = %68
  %73 = call i32 (i8*, ...) @printf(i8* getelementptr inbounds ([3 x i8], [3 x i8]* @.str.9, i64 0, i64 0))
  br label %74

74:                                               ; preds = %72, %68
  %75 = getelementptr inbounds [365 x i32], [365 x i32]* %4, i64 0, i64 285
  %76 = load i32, i32* %75, align 4
  %77 = icmp eq i32 %76, 5
  br i1 %77, label %78, label %80

78:                                               ; preds = %74
  %79 = call i32 (i8*, ...) @printf(i8* getelementptr inbounds ([4 x i8], [4 x i8]* @.str.10, i64 0, i64 0))
  br label %80

80:                                               ; preds = %78, %74
  %81 = getelementptr inbounds [365 x i32], [365 x i32]* %4, i64 0, i64 316
  %82 = load i32, i32* %81, align 16
  %83 = icmp eq i32 %82, 5
  br i1 %83, label %84, label %86

84:                                               ; preds = %80
  %85 = call i32 (i8*, ...) @printf(i8* getelementptr inbounds ([4 x i8], [4 x i8]* @.str.11, i64 0, i64 0))
  br label %86

86:                                               ; preds = %84, %80
  %87 = getelementptr inbounds [365 x i32], [365 x i32]* %4, i64 0, i64 346
  %88 = load i32, i32* %87, align 8
  %89 = icmp eq i32 %88, 5
  br i1 %89, label %90, label %92

90:                                               ; preds = %86
  %91 = call i32 (i8*, ...) @printf(i8* getelementptr inbounds ([4 x i8], [4 x i8]* @.str.12, i64 0, i64 0))
  br label %92

92:                                               ; preds = %90, %86
  ret i32 0
}

declare dso_local i32 @__isoc99_scanf(i8*, ...) #1

declare dso_local i32 @printf(i8*, ...) #1


!llvm.module.flags = !{!0}
!llvm.ident = !{!1}

!0 = !{i32 1, !"wchar_size", i32 4}
!1 = !{!"clang version 10.0.0-4ubuntu1 "}
